; Function Attrs: nounwind uwtable
define internal void @_ZTv0_n24_N12_GLOBAL__N_118SharedFromThisVirtD0Ev(ptr noundef %0) unnamed_addr #19 align 2 personality ptr @__gxx_personality_v0 {
  %2 = load ptr, ptr %0, align 8
  %3 = getelementptr inbounds i8, ptr %2, i64 -24
  %4 = load i64, ptr %3, align 8
  %5 = getelementptr inbounds i8, ptr %0, i64 %4
  %6 = getelementptr inbounds i8, ptr %5, i64 24
  %.val.i.i.i = load ptr, ptr %6, align 8
  %.not.i.i.i.i.i.i.i = icmp eq ptr %.val.i.i.i, null
  br i1 %.not.i.i.i.i.i.i.i, label %_ZN12_GLOBAL__N_118SharedFromThisVirtD0Ev.exit, label %7

7:                                                ; preds = %1
  %8 = getelementptr inbounds i8, ptr %.val.i.i.i, i64 12
  %9 = load i8, ptr @__libc_single_threaded, align 1
  %.not.i.i.i.i.i.i.i.i = icmp eq i8 %9, 0
  br i1 %.not.i.i.i.i.i.i.i.i, label %13, label %10

10:                                               ; preds = %7
  %11 = load i32, ptr %8, align 4
  %12 = add nsw i32 %11, -1
  store i32 %12, ptr %8, align 4
  br label %15

13:                                               ; preds = %7
  %14 = atomicrmw volatile add ptr %8, i32 -1 acq_rel, align 4
  br label %15

15:                                               ; preds = %13, %10
  %.0.i.i.i.i.i.i.i.i = phi i32 [ %11, %10 ], [ %14, %13 ]
  %16 = icmp eq i32 %.0.i.i.i.i.i.i.i.i, 1
  br i1 %16, label %17, label %_ZN12_GLOBAL__N_118SharedFromThisVirtD0Ev.exit

17:                                               ; preds = %15
  %18 = load ptr, ptr %.val.i.i.i, align 8
  %19 = getelementptr inbounds i8, ptr %18, i64 24
  %20 = load ptr, ptr %19, align 8
  tail call void %20(ptr noundef nonnull align 8 dereferenceable(16) %.val.i.i.i) #28
  br label %_ZN12_GLOBAL__N_118SharedFromThisVirtD0Ev.exit

_ZN12_GLOBAL__N_118SharedFromThisVirtD0Ev.exit:   ; preds = %1, %15, %17
  tail call void @_ZdlPv(ptr noundef nonnull %5) #33
  ret void
}